; Function Attrs: mustprogress nofree norecurse nosync nounwind willreturn memory(read, argmem: readwrite, inaccessiblemem: none) uwtable
define dso_local void @_ZN26btTriangleIndexVertexArray24getLockedVertexIndexBaseEPPhRiR14PHY_ScalarTypeS2_S1_S2_S2_S4_i(ptr nocapture noundef nonnull readonly align 8 dereferenceable(100) %this, ptr nocapture noundef writeonly %vertexbase, ptr nocapture noundef nonnull writeonly align 4 dereferenceable(4) %numverts, ptr nocapture noundef nonnull writeonly align 4 dereferenceable(4) %type, ptr nocapture noundef nonnull writeonly align 4 dereferenceable(4) %vertexStride, ptr nocapture noundef writeonly %indexbase, ptr nocapture noundef nonnull writeonly align 4 dereferenceable(4) %indexstride, ptr nocapture noundef nonnull writeonly align 4 dereferenceable(4) %numfaces, ptr nocapture noundef nonnull writeonly align 4 dereferenceable(4) %indicestype, i32 noundef %subpart) unnamed_addr #3 align 2 {
entry:
  %m_data.i = getelementptr inbounds i8, ptr %this, i64 40
  %0 = load ptr, ptr %m_data.i, align 8
  %idxprom.i = sext i32 %subpart to i64
  %arrayidx.i = getelementptr inbounds %struct.btIndexedMesh, ptr %0, i64 %idxprom.i
  %m_numVertices = getelementptr inbounds i8, ptr %arrayidx.i, i64 20
  %1 = load i32, ptr %m_numVertices, align 4
  store i32 %1, ptr %numverts, align 4
  %m_vertexBase = getelementptr inbounds i8, ptr %arrayidx.i, i64 24
  %2 = load ptr, ptr %m_vertexBase, align 8
  store ptr %2, ptr %vertexbase, align 8
  %m_vertexType = getelementptr inbounds i8, ptr %arrayidx.i, i64 40
  %3 = load i32, ptr %m_vertexType, align 8
  store i32 %3, ptr %type, align 4
  %m_vertexStride = getelementptr inbounds i8, ptr %arrayidx.i, i64 32
  %4 = load i32, ptr %m_vertexStride, align 8
  store i32 %4, ptr %vertexStride, align 4
  %5 = load i32, ptr %arrayidx.i, align 8
  store i32 %5, ptr %numfaces, align 4
  %m_triangleIndexBase = getelementptr inbounds i8, ptr %arrayidx.i, i64 8
  %6 = load ptr, ptr %m_triangleIndexBase, align 8
  store ptr %6, ptr %indexbase, align 8
  %m_triangleIndexStride = getelementptr inbounds i8, ptr %arrayidx.i, i64 16
  %7 = load i32, ptr %m_triangleIndexStride, align 8
  store i32 %7, ptr %indexstride, align 4
  %m_indexType = getelementptr inbounds i8, ptr %arrayidx.i, i64 36
  %8 = load i32, ptr %m_indexType, align 4
  store i32 %8, ptr %indicestype, align 4
  ret void
}